 0x000000000000000e (SONAME)             Library soname: [libcamera-base.so.0.7]
_ZN9libcamera10Extensible7PrivateC1Ev T
_ZN9libcamera10Extensible7PrivateC2Ev T
_ZN9libcamera10Extensible7PrivateD0Ev T
_ZN9libcamera10Extensible7PrivateD1Ev T
_ZN9libcamera10Extensible7PrivateD2Ev T
_ZN9libcamera10ExtensibleC1ESt10unique_ptrINS0_7PrivateESt14default_deleteIS2_EE T
_ZN9libcamera10ExtensibleC2ESt10unique_ptrINS0_7PrivateESt14default_deleteIS2_EE T
_ZN9libcamera10LogMessageC1EPKcjRKNS_11LogCategoryENS_11LogSeverityENSt7__cxx1112basic_stringIcSt11char_traitsIcESaIcEEE T
_ZN9libcamera10LogMessageC2EPKcjRKNS_11LogCategoryENS_11LogSeverityENSt7__cxx1112basic_stringIcSt11char_traitsIcESaIcEEE T
_ZN9libcamera10LogMessageD1Ev T
_ZN9libcamera10LogMessageD2Ev T
_ZN9libcamera10logSetFileEPKcb T
_ZN9libcamera10SignalBase10disconnectEPNS_6ObjectE T
_ZN9libcamera10SignalBase10disconnectESt8functionIFbRSt14_List_iteratorIPNS_15BoundMethodBaseEEEE T
_ZN9libcamera10SignalBase5slotsB5cxx11Ev T
_ZN9libcamera10SignalBase7connectEPNS_15BoundMethodBaseE T
_ZN9libcamera10ThreadData7currentEv T
_ZN9libcamera10ThreadMain3runEv W
_ZN9libcamera10ThreadMainD0Ev W
_ZN9libcamera10ThreadMainD1Ev W
_ZN9libcamera10ThreadMainD2Ev W
_ZN9libcamera11LogCategory15defaultCategoryEv T
_ZN9libcamera11LogCategory6createESt17basic_string_viewIcSt11char_traitsIcEE T
_ZN9libcamera11LogCategoryC1ESt17basic_string_viewIcSt11char_traitsIcEE T
_ZN9libcamera11LogCategoryC2ESt17basic_string_viewIcSt11char_traitsIcEE T
_ZN9libcamera11logSetLevelEPKcS1_ T
_ZN9libcamera12logSetStreamEPSob T
_ZN9libcamera12logSetTargetENS_13LoggingTargetE T
_ZN9libcamera13EventNotifier10setEnabledEb T
_ZN9libcamera13EventNotifier7messageEPNS_7MessageE T
_ZN9libcamera13EventNotifierC1EiNS0_4TypeEPNS_6ObjectE T
_ZN9libcamera13EventNotifierC2EiNS0_4TypeEPNS_6ObjectE T
_ZN9libcamera13EventNotifierD0Ev T
_ZN9libcamera13EventNotifierD1Ev T
_ZN9libcamera13EventNotifierD2Ev T
_ZN9libcamera13InvokeMessage6invokeEv T
_ZN9libcamera13InvokeMessageC1EPNS_15BoundMethodBaseESt10shared_ptrINS_19BoundMethodPackBaseEEPNS_9SemaphoreEb T
_ZN9libcamera13InvokeMessageC2EPNS_15BoundMethodBaseESt10shared_ptrINS_19BoundMethodPackBaseEEPNS_9SemaphoreEb T
_ZN9libcamera13InvokeMessageD0Ev T
_ZN9libcamera13InvokeMessageD1Ev T
_ZN9libcamera13InvokeMessageD2Ev T
_ZN9libcamera15BoundMethodArgsIvJbEE10invokePackEPNS_19BoundMethodPackBaseE W
_ZN9libcamera15BoundMethodArgsIvJEE10invokePackEPNS_19BoundMethodPackBaseE W
_ZN9libcamera15BoundMethodBase12activatePackESt10shared_ptrINS_19BoundMethodPackBaseEEb T
_ZN9libcamera15BoundMethodPackIvJbEED0Ev W
_ZN9libcamera15BoundMethodPackIvJbEED1Ev W
_ZN9libcamera15BoundMethodPackIvJbEED2Ev W
_ZN9libcamera15BoundMethodPackIvJEED0Ev W
_ZN9libcamera15BoundMethodPackIvJEED1Ev W
_ZN9libcamera15BoundMethodPackIvJEED2Ev W
_ZN9libcamera15EventDispatcherD0Ev T
_ZN9libcamera15EventDispatcherD1Ev T
_ZN9libcamera15EventDispatcherD2Ev T
_ZN9libcamera15logCategoryFileEv T
_ZN9libcamera16logCategoryEventEv T
_ZN9libcamera16logCategoryTimerEv T
_ZN9libcamera17BoundMethodMemberINS_13EventNotifierEvJbEE6invokeEb W
_ZN9libcamera17BoundMethodMemberINS_13EventNotifierEvJbEE8activateEbb W
_ZN9libcamera17BoundMethodMemberINS_13EventNotifierEvJbEED0Ev W
_ZN9libcamera17BoundMethodMemberINS_13EventNotifierEvJbEED1Ev W
_ZN9libcamera17BoundMethodMemberINS_13EventNotifierEvJbEED2Ev W
_ZN9libcamera17BoundMethodMemberINS_5TimerEvJEE6invokeEv W
_ZN9libcamera17BoundMethodMemberINS_5TimerEvJEE8activateEb W
_ZN9libcamera17BoundMethodMemberINS_5TimerEvJEED0Ev W
_ZN9libcamera17BoundMethodMemberINS_5TimerEvJEED1Ev W
_ZN9libcamera17BoundMethodMemberINS_5TimerEvJEED2Ev W
_ZN9libcamera17logCategoryObjectEv T
_ZN9libcamera17logCategoryThreadEv T
_ZN9libcamera18logCategoryMessageEv T
_ZN9libcamera19EventDispatcherPoll13processEventsEv T
_ZN9libcamera19EventDispatcherPoll13processTimersEv T
_ZN9libcamera19EventDispatcherPoll13registerTimerEPNS_5TimerE T
_ZN9libcamera19EventDispatcherPoll15unregisterTimerEPNS_5TimerE T
_ZN9libcamera19EventDispatcherPoll16processInterruptERK6pollfd T
_ZN9libcamera19EventDispatcherPoll16processNotifiersERKSt6vectorI6pollfdSaIS2_EE T
_ZN9libcamera19EventDispatcherPoll21registerEventNotifierEPNS_13EventNotifierE T
_ZN9libcamera19EventDispatcherPoll23unregisterEventNotifierEPNS_13EventNotifierE T
_ZN9libcamera19EventDispatcherPoll4pollEPSt6vectorI6pollfdSaIS2_EE T
_ZN9libcamera19EventDispatcherPoll9interruptEv T
_ZN9libcamera19EventDispatcherPollC1Ev T
_ZN9libcamera19EventDispatcherPollC2Ev T
_ZN9libcamera19EventDispatcherPollD0Ev T
_ZN9libcamera19EventDispatcherPollD1Ev T
_ZN9libcamera19EventDispatcherPollD2Ev T
_ZN9libcamera19logCategorySharedFDEv T
_ZN9libcamera19logCategoryUniqueFDEv T
_ZN9libcamera4File11setFileNameERKNSt7__cxx1112basic_stringIcSt11char_traitsIcESaIcEEE T
_ZN9libcamera4File3mapEllNS_5FlagsINS0_7MapFlagEEE T
_ZN9libcamera4File4openENS_5FlagsINS0_12OpenModeFlagEEE T
_ZN9libcamera4File4readERKNS_4SpanIhLm18446744073709551615EEE T
_ZN9libcamera4File4seekEl T
_ZN9libcamera4File5closeEv T
_ZN9libcamera4File5unmapEPh T
_ZN9libcamera4File5writeERKNS_4SpanIKhLm18446744073709551615EEE T
_ZN9libcamera4File6existsERKNSt7__cxx1112basic_stringIcSt11char_traitsIcESaIcEEE T
_ZN9libcamera4File8unmapAllEv T
_ZN9libcamera4FileC1ERKNSt7__cxx1112basic_stringIcSt11char_traitsIcESaIcEEE T
_ZN9libcamera4FileC1Ev T
_ZN9libcamera4FileC2ERKNSt7__cxx1112basic_stringIcSt11char_traitsIcESaIcEEE T
_ZN9libcamera4FileC2Ev T
_ZN9libcamera4FileD1Ev T
_ZN9libcamera4FileD2Ev T
_ZN9libcamera4_logERKNS_11LogCategoryENS_11LogSeverityEPKcj T
_ZN9libcamera5MemFd6createEPKcmNS_5FlagsINS0_4SealEEE T
_ZN9libcamera5Timer13registerTimerEv T
_ZN9libcamera5Timer15unregisterTimerEv T
_ZN9libcamera5Timer4stopEv T
_ZN9libcamera5Timer5startENSt6chrono10time_pointINS1_3_V212steady_clockENS1_8durationIlSt5ratioILl1ELl1000000000EEEEEE T
_ZN9libcamera5Timer5startENSt6chrono8durationIlSt5ratioILl1ELl1000EEEE T
_ZN9libcamera5Timer7messageEPNS_7MessageE T
_ZN9libcamera5TimerC1EPNS_6ObjectE T
_ZN9libcamera5TimerC2EPNS_6ObjectE T
_ZN9libcamera5TimerD0Ev T
_ZN9libcamera5TimerD1Ev T
_ZN9libcamera5TimerD2Ev T
_ZN9libcamera5utils13secure_getenvEPKc T
_ZN9libcamera5utils16ScopeExitActions7releaseEv T
_ZN9libcamera5utils16ScopeExitActionsD1Ev T
_ZN9libcamera5utils16ScopeExitActionsD2Ev T
_ZN9libcamera5utils16ScopeExitActionspLEOSt8functionIFvvEE T
_ZN9libcamera5utils20duration_to_timespecERKNSt6chrono8durationIlSt5ratioILl1ELl1000000000EEEE T
_ZN9libcamera5utils20time_point_to_stringB5cxx11ERKNSt6chrono10time_pointINS1_3_V212steady_clockENS1_8durationIlSt5ratioILl1ELl1000000000EEEEEE T
_ZN9libcamera5utils5splitERKNSt7__cxx1112basic_stringIcSt11char_traitsIcESaIcEEES8_ T
_ZN9libcamera5utils6strtodEPKcPPc T
_ZN9libcamera5utils7details14StringSplitter8iteratorC1EPKS2_m T
_ZN9libcamera5utils7details14StringSplitter8iteratorC2EPKS2_m T
_ZN9libcamera5utils7details14StringSplitter8iteratorppEv T
_ZN9libcamera5utils7details14StringSplitterC1ERKNSt7__cxx1112basic_stringIcSt11char_traitsIcESaIcEEESA_ T
_ZN9libcamera5utils7details14StringSplitterC2ERKNSt7__cxx1112basic_stringIcSt11char_traitsIcESaIcEEESA_ T
_ZN9libcamera5utils7detailslsERSoRKNS1_3hexE T
_ZN9libcamera5utils7dirnameERKNSt7__cxx1112basic_stringIcSt11char_traitsIcESaIcEEE T
_ZN9libcamera5utils7strlcpyEPcPKcm T
_ZN9libcamera5utils7toAsciiERKNSt7__cxx1112basic_stringIcSt11char_traitsIcESaIcEEE T
_ZN9libcamera5utils8basenameEPKc T
_ZN9libcamera5utilslsERSoRKNS0_8DurationE T
_ZN9libcamera6Logger10destroyed_E B 1
_ZN9libcamera6Logger10logSetFileEPKcb T
_ZN9libcamera6Logger11logSetLevelEPKcS2_ T
_ZN9libcamera6Logger12logSetStreamEPSob T
_ZN9libcamera6Logger12logSetTargetENS_13LoggingTargetE T
_ZN9libcamera6Logger12parseLogFileEv T
_ZN9libcamera6Logger13parseLogLevelESt17basic_string_viewIcSt11char_traitsIcEE T
_ZN9libcamera6Logger14parseLogLevelsEv T
_ZN9libcamera6Logger20findOrCreateCategoryESt17basic_string_viewIcSt11char_traitsIcEE T
_ZN9libcamera6Logger5writeERKNS_10LogMessageE T
_ZN9libcamera6Logger8instanceEv T
_ZN9libcamera6Logger9backtraceEv T
_ZN9libcamera6LoggerC1Ev T
_ZN9libcamera6LoggerC2Ev T
_ZN9libcamera6LoggerD1Ev T
_ZN9libcamera6LoggerD2Ev T
_ZN9libcamera6Object10disconnectEPNS_10SignalBaseE T
_ZN9libcamera6Object11deleteLaterEv T
_ZN9libcamera6Object11postMessageESt10unique_ptrINS_7MessageESt14default_deleteIS2_EE T
_ZN9libcamera6Object12moveToThreadEPNS_6ThreadE T
_ZN9libcamera6Object16notifyThreadMoveEv T
_ZN9libcamera6Object17assertThreadBoundEPKc T
_ZN9libcamera6Object7connectEPNS_10SignalBaseE T
_ZN9libcamera6Object7messageEPNS_7MessageE T
_ZN9libcamera6ObjectC1EPS0_ T
_ZN9libcamera6ObjectC2EPS0_ T
_ZN9libcamera6ObjectD0Ev T
_ZN9libcamera6ObjectD1Ev T
_ZN9libcamera6ObjectD2Ev T
_ZN9libcamera6SignalIJEED1Ev W
_ZN9libcamera6SignalIJEED2Ev W
_ZN9libcamera6Thread10moveObjectEPNS_6ObjectE T
_ZN9libcamera6Thread10moveObjectEPNS_6ObjectEPNS_10ThreadDataES4_ T
_ZN9libcamera6Thread11postMessageESt10unique_ptrINS_7MessageESt14default_deleteIS2_EEPNS_6ObjectE T
_ZN9libcamera6Thread11startThreadEv T
_ZN9libcamera6Thread12finishThreadEv T
_ZN9libcamera6Thread14removeMessagesEPNS_6ObjectE T
_ZN9libcamera6Thread15eventDispatcherEv T
_ZN9libcamera6Thread16dispatchMessagesENS_7Message4TypeEPNS_6ObjectE T
_ZN9libcamera6Thread17setThreadAffinityERKNS_4SpanIKjLm18446744073709551615EEE T
_ZN9libcamera6Thread25setThreadAffinityInternalEv T
_ZN9libcamera6Thread3runEv T
_ZN9libcamera6Thread4execEv T
_ZN9libcamera6Thread4exitEi T
_ZN9libcamera6Thread4waitENSt6chrono8durationIlSt5ratioILl1ELl1000000000EEEE T
_ZN9libcamera6Thread5startEv T
_ZN9libcamera6Thread7currentEv T
_ZN9libcamera6Thread9currentIdEv T
_ZN9libcamera6Thread9isRunningEv T
_ZN9libcamera6ThreadC1ENSt7__cxx1112basic_stringIcSt11char_traitsIcESaIcEEE T
_ZN9libcamera6ThreadC2ENSt7__cxx1112basic_stringIcSt11char_traitsIcESaIcEEE T
_ZN9libcamera6ThreadD0Ev T
_ZN9libcamera6ThreadD1Ev T
_ZN9libcamera6ThreadD2Ev T
_ZN9libcamera7Message13nextUserType_E D 4
_ZN9libcamera7Message19registerMessageTypeEv T
_ZN9libcamera7MessageC1ENS0_4TypeE T
_ZN9libcamera7MessageC2ENS0_4TypeE T
_ZN9libcamera7MessageD0Ev T
_ZN9libcamera7MessageD1Ev T
_ZN9libcamera7MessageD2Ev T
_ZN9libcamera8LoggableD0Ev T
_ZN9libcamera8LoggableD1Ev T
_ZN9libcamera8LoggableD2Ev T
_ZN9libcamera8SharedFD10DescriptorC1Eib T
_ZN9libcamera8SharedFD10DescriptorC2Eib T
_ZN9libcamera8SharedFD10DescriptorD1Ev T
_ZN9libcamera8SharedFD10DescriptorD2Ev T
_ZN9libcamera8SharedFDaSEOS0_ T
_ZN9libcamera8SharedFDaSERKS0_ T
_ZN9libcamera8SharedFDC1ENS_8UniqueFDE T
_ZN9libcamera8SharedFDC1EOi T
_ZN9libcamera8SharedFDC1EOS0_ T
_ZN9libcamera8SharedFDC1ERKi T
_ZN9libcamera8SharedFDC1ERKS0_ T
_ZN9libcamera8SharedFDC2ENS_8UniqueFDE T
_ZN9libcamera8SharedFDC2EOi T
_ZN9libcamera8SharedFDC2EOS0_ T
_ZN9libcamera8SharedFDC2ERKi T
_ZN9libcamera8SharedFDC2ERKS0_ T
_ZN9libcamera8SharedFDD1Ev T
_ZN9libcamera8SharedFDD2Ev T
_ZN9libcamera8UniqueFD5resetEi T
_ZN9libcamera9Backtrace11unwindTraceEv T
_ZN9libcamera9Backtrace14backtraceTraceEv T
_ZN9libcamera9BacktraceC1Ev T
_ZN9libcamera9BacktraceC2Ev T
_ZN9libcamera9LogOutput11writeStreamERKNSt7__cxx1112basic_stringIcSt11char_traitsIcESaIcEEE T
_ZN9libcamera9LogOutput11writeSyslogENS_11LogSeverityERKNSt7__cxx1112basic_stringIcSt11char_traitsIcESaIcEEE T
_ZN9libcamera9LogOutput5writeERKNS_10LogMessageE T
_ZN9libcamera9LogOutput5writeERKNSt7__cxx1112basic_stringIcSt11char_traitsIcESaIcEEE T
_ZN9libcamera9LogOutputC1EPKcb T
_ZN9libcamera9LogOutputC1EPSob T
_ZN9libcamera9LogOutputC1Ev T
_ZN9libcamera9LogOutputC2EPKcb T
_ZN9libcamera9LogOutputC2EPSob T
_ZN9libcamera9LogOutputC2Ev T
_ZN9libcamera9LogOutputD1Ev T
_ZN9libcamera9LogOutputD2Ev T
_ZN9libcamera9Semaphore10tryAcquireEj T
_ZN9libcamera9Semaphore7acquireEj T
_ZN9libcamera9Semaphore7releaseEj T
_ZN9libcamera9Semaphore9availableEv T
_ZN9libcamera9SemaphoreC1Ej T
_ZN9libcamera9SemaphoreC2Ej T
_ZNK9libcamera19EventDispatcherPoll20EventNotifierSetPoll6eventsEv T
_ZNK9libcamera4File3posEv T
_ZNK9libcamera4File4sizeEv T
_ZNK9libcamera4File6existsEv T
_ZNK9libcamera5Timer9isRunningEv T
_ZNK9libcamera5utils7details14StringSplitter8iteratordeB5cxx11Ev T
_ZNK9libcamera8Loggable4_logERKNS_11LogCategoryENS_11LogSeverityEPKcj T
_ZNK9libcamera8SharedFD3dupEv T
_ZNK9libcamera9Backtrace8toStringB5cxx11Ej T
_ZNK9libcamera9LogOutput7isValidEv T
_ZNKSt19bad_optional_access4whatEv W
_ZNKSt5ctypeIcE8do_widenEc W
_ZNSt11unique_lockISt5mutexE6unlockEv W
_ZNSt15_Sp_counted_ptrIDnLN9__gnu_cxx12_Lock_policyE2EE10_M_disposeEv W
_ZNSt16_Sp_counted_baseILN9__gnu_cxx12_Lock_policyE2EE10_M_destroyEv W
_ZNSt16_Sp_counted_baseILN9__gnu_cxx12_Lock_policyE2EE10_M_releaseEv W
_ZNSt16_Sp_counted_baseILN9__gnu_cxx12_Lock_policyE2EE24_M_release_last_use_coldEv W
_ZNSt17_Function_handlerIFbRSt14_List_iteratorIPN9libcamera15BoundMethodBaseEEEZNS1_6SignalIJEE10disconnectEvEUlS5_E_E10_M_managerERSt9_Any_dataRKSB_St18_Manager_operation W
_ZNSt17_Function_handlerIFbRSt14_List_iteratorIPN9libcamera15BoundMethodBaseEEEZNS1_6SignalIJEE10disconnectEvEUlS5_E_E9_M_invokeERKSt9_Any_dataS5_ W
_ZNSt19bad_optional_accessD0Ev W
_ZNSt19bad_optional_accessD1Ev W
_ZNSt19bad_optional_accessD2Ev W
_ZNSt23_Sp_counted_ptr_inplaceIN9libcamera15BoundMethodPackIvJbEEESaIvELN9__gnu_cxx12_Lock_policyE2EE10_M_destroyEv W
_ZNSt23_Sp_counted_ptr_inplaceIN9libcamera15BoundMethodPackIvJbEEESaIvELN9__gnu_cxx12_Lock_policyE2EE10_M_disposeEv W
_ZNSt23_Sp_counted_ptr_inplaceIN9libcamera15BoundMethodPackIvJbEEESaIvELN9__gnu_cxx12_Lock_policyE2EE14_M_get_deleterERKSt9type_info W
_ZNSt23_Sp_counted_ptr_inplaceIN9libcamera15BoundMethodPackIvJbEEESaIvELN9__gnu_cxx12_Lock_policyE2EED0Ev W
_ZNSt23_Sp_counted_ptr_inplaceIN9libcamera15BoundMethodPackIvJbEEESaIvELN9__gnu_cxx12_Lock_policyE2EED1Ev W
_ZNSt23_Sp_counted_ptr_inplaceIN9libcamera15BoundMethodPackIvJbEEESaIvELN9__gnu_cxx12_Lock_policyE2EED2Ev W
_ZNSt23_Sp_counted_ptr_inplaceIN9libcamera15BoundMethodPackIvJEEESaIvELN9__gnu_cxx12_Lock_policyE2EE10_M_destroyEv W
_ZNSt23_Sp_counted_ptr_inplaceIN9libcamera15BoundMethodPackIvJEEESaIvELN9__gnu_cxx12_Lock_policyE2EE10_M_disposeEv W
_ZNSt23_Sp_counted_ptr_inplaceIN9libcamera15BoundMethodPackIvJEEESaIvELN9__gnu_cxx12_Lock_policyE2EE14_M_get_deleterERKSt9type_info W
_ZNSt23_Sp_counted_ptr_inplaceIN9libcamera15BoundMethodPackIvJEEESaIvELN9__gnu_cxx12_Lock_policyE2EED0Ev W
_ZNSt23_Sp_counted_ptr_inplaceIN9libcamera15BoundMethodPackIvJEEESaIvELN9__gnu_cxx12_Lock_policyE2EED1Ev W
_ZNSt23_Sp_counted_ptr_inplaceIN9libcamera15BoundMethodPackIvJEEESaIvELN9__gnu_cxx12_Lock_policyE2EED2Ev W
_ZNSt23_Sp_counted_ptr_inplaceIN9libcamera8SharedFD10DescriptorESaIvELN9__gnu_cxx12_Lock_policyE2EE10_M_destroyEv W
_ZNSt23_Sp_counted_ptr_inplaceIN9libcamera8SharedFD10DescriptorESaIvELN9__gnu_cxx12_Lock_policyE2EE10_M_disposeEv W
_ZNSt23_Sp_counted_ptr_inplaceIN9libcamera8SharedFD10DescriptorESaIvELN9__gnu_cxx12_Lock_policyE2EE14_M_get_deleterERKSt9type_info W
_ZNSt23_Sp_counted_ptr_inplaceIN9libcamera8SharedFD10DescriptorESaIvELN9__gnu_cxx12_Lock_policyE2EED0Ev W
_ZNSt23_Sp_counted_ptr_inplaceIN9libcamera8SharedFD10DescriptorESaIvELN9__gnu_cxx12_Lock_policyE2EED1Ev W
_ZNSt23_Sp_counted_ptr_inplaceIN9libcamera8SharedFD10DescriptorESaIvELN9__gnu_cxx12_Lock_policyE2EED2Ev W
_ZNSt23_Sp_counted_ptr_inplaceIN9libcamera9LogOutputESaIvELN9__gnu_cxx12_Lock_policyE2EE10_M_destroyEv W
_ZNSt23_Sp_counted_ptr_inplaceIN9libcamera9LogOutputESaIvELN9__gnu_cxx12_Lock_policyE2EE10_M_disposeEv W
_ZNSt23_Sp_counted_ptr_inplaceIN9libcamera9LogOutputESaIvELN9__gnu_cxx12_Lock_policyE2EE14_M_get_deleterERKSt9type_info W
_ZNSt23_Sp_counted_ptr_inplaceIN9libcamera9LogOutputESaIvELN9__gnu_cxx12_Lock_policyE2EED0Ev W
_ZNSt23_Sp_counted_ptr_inplaceIN9libcamera9LogOutputESaIvELN9__gnu_cxx12_Lock_policyE2EED1Ev W
_ZNSt23_Sp_counted_ptr_inplaceIN9libcamera9LogOutputESaIvELN9__gnu_cxx12_Lock_policyE2EED2Ev W
_ZNSt6thread11_State_implINS_8_InvokerISt5tupleIJMN9libcamera6ThreadEFvvEPS4_EEEEE6_M_runEv W
_ZNSt6thread11_State_implINS_8_InvokerISt5tupleIJMN9libcamera6ThreadEFvvEPS4_EEEEED0Ev W
_ZNSt6thread11_State_implINS_8_InvokerISt5tupleIJMN9libcamera6ThreadEFvvEPS4_EEEEED1Ev W
_ZNSt6thread11_State_implINS_8_InvokerISt5tupleIJMN9libcamera6ThreadEFvvEPS4_EEEEED2Ev W
_ZNSt6thread24_M_thread_deps_never_runEv W
_ZNSt6vectorI6pollfdSaIS0_EE17_M_realloc_insertIJS0_EEEvN9__gnu_cxx17__normal_iteratorIPS0_S2_EEDpOT_ W
_ZNSt6vectorIPN9libcamera6ObjectESaIS2_EE17_M_realloc_insertIJS2_EEEvN9__gnu_cxx17__normal_iteratorIPS2_S4_EEDpOT_ W
_ZNSt6vectorIPvSaIS0_EE17_M_default_appendEm W
_ZNSt6vectorIPvSaIS0_EE17_M_realloc_insertIJS0_EEEvN9__gnu_cxx17__normal_iteratorIPS0_S2_EEDpOT_ W
_ZNSt6vectorISt10unique_ptrIN9libcamera11LogCategoryESt14default_deleteIS2_EESaIS5_EE17_M_realloc_insertIJS5_EEEvN9__gnu_cxx17__normal_iteratorIPS5_S7_EEDpOT_ W
_ZNSt6vectorISt10unique_ptrIN9libcamera7MessageESt14default_deleteIS2_EESaIS5_EE17_M_realloc_insertIJS5_EEEvN9__gnu_cxx17__normal_iteratorIPS5_S7_EEDpOT_ W
_ZNSt6vectorISt8functionIFvvEESaIS2_EE17_M_realloc_insertIJS2_EEEvN9__gnu_cxx17__normal_iteratorIPS2_S4_EEDpOT_ W
_ZNSt8_Rb_treeIPvSt4pairIKS0_mESt10_Select1stIS3_ESt4lessIS0_ESaIS3_EE22_M_emplace_hint_uniqueIJRS0_RlEEESt17_Rb_tree_iteratorIS3_ESt23_Rb_tree_const_iteratorIS3_EDpOT_ W
_ZSt27__throw_bad_optional_accessv W
_ZSt4lockIN9libcamera11MutexLockerES1_JEEvRT_RT0_DpRT1_ W
_ZTIN9libcamera10Extensible7PrivateE V
_ZTIN9libcamera10ThreadMainE V
_ZTIN9libcamera13EventNotifierE V
_ZTIN9libcamera13InvokeMessageE V
_ZTIN9libcamera15BoundMethodArgsIvJbEEE V
_ZTIN9libcamera15BoundMethodArgsIvJEEE V
_ZTIN9libcamera15BoundMethodBaseE V
_ZTIN9libcamera15BoundMethodPackIvJbEEE V
_ZTIN9libcamera15BoundMethodPackIvJEEE V
_ZTIN9libcamera15EventDispatcherE V
_ZTIN9libcamera17BoundMethodMemberINS_13EventNotifierEvJbEEE V
_ZTIN9libcamera17BoundMethodMemberINS_5TimerEvJEEE V
_ZTIN9libcamera19BoundMethodPackBaseE V
_ZTIN9libcamera19EventDispatcherPollE V
_ZTIN9libcamera5TimerE V
_ZTIN9libcamera6ObjectE V
_ZTIN9libcamera6ThreadE V
_ZTIN9libcamera7MessageE V
_ZTIN9libcamera8LoggableE V
_ZTINSt6thread11_State_implINS_8_InvokerISt5tupleIJMN9libcamera6ThreadEFvvEPS4_EEEEEE V
_ZTISt11_Mutex_baseILN9__gnu_cxx12_Lock_policyE2EE V
_ZTISt16_Sp_counted_baseILN9__gnu_cxx12_Lock_policyE2EE V
_ZTISt19bad_optional_access V
_ZTISt23_Sp_counted_ptr_inplaceIN9libcamera15BoundMethodPackIvJbEEESaIvELN9__gnu_cxx12_Lock_policyE2EE V
_ZTISt23_Sp_counted_ptr_inplaceIN9libcamera15BoundMethodPackIvJEEESaIvELN9__gnu_cxx12_Lock_policyE2EE V
_ZTISt23_Sp_counted_ptr_inplaceIN9libcamera8SharedFD10DescriptorESaIvELN9__gnu_cxx12_Lock_policyE2EE V
_ZTISt23_Sp_counted_ptr_inplaceIN9libcamera9LogOutputESaIvELN9__gnu_cxx12_Lock_policyE2EE V
_ZTIZN9libcamera6SignalIJEE10disconnectEvEUlRSt14_List_iteratorIPNS_15BoundMethodBaseEEE_ V
_ZTSN9libcamera10Extensible7PrivateE V
_ZTSN9libcamera10ThreadMainE V
_ZTSN9libcamera13EventNotifierE V
_ZTSN9libcamera13InvokeMessageE V
_ZTSN9libcamera15BoundMethodArgsIvJbEEE V
_ZTSN9libcamera15BoundMethodArgsIvJEEE V
_ZTSN9libcamera15BoundMethodBaseE V
_ZTSN9libcamera15BoundMethodPackIvJbEEE V
_ZTSN9libcamera15BoundMethodPackIvJEEE V
_ZTSN9libcamera15EventDispatcherE V
_ZTSN9libcamera17BoundMethodMemberINS_13EventNotifierEvJbEEE V
_ZTSN9libcamera17BoundMethodMemberINS_5TimerEvJEEE V
_ZTSN9libcamera19BoundMethodPackBaseE V
_ZTSN9libcamera19EventDispatcherPollE V
_ZTSN9libcamera5TimerE V
_ZTSN9libcamera6ObjectE V
_ZTSN9libcamera6ThreadE V
_ZTSN9libcamera7MessageE V
_ZTSN9libcamera8LoggableE V
_ZTSNSt6thread11_State_implINS_8_InvokerISt5tupleIJMN9libcamera6ThreadEFvvEPS4_EEEEEE V
_ZTSSt11_Mutex_baseILN9__gnu_cxx12_Lock_policyE2EE V
_ZTSSt16_Sp_counted_baseILN9__gnu_cxx12_Lock_policyE2EE V
_ZTSSt19bad_optional_access V
_ZTSSt19_Sp_make_shared_tag V
_ZTSSt23_Sp_counted_ptr_inplaceIN9libcamera15BoundMethodPackIvJbEEESaIvELN9__gnu_cxx12_Lock_policyE2EE V
_ZTSSt23_Sp_counted_ptr_inplaceIN9libcamera15BoundMethodPackIvJEEESaIvELN9__gnu_cxx12_Lock_policyE2EE V
_ZTSSt23_Sp_counted_ptr_inplaceIN9libcamera8SharedFD10DescriptorESaIvELN9__gnu_cxx12_Lock_policyE2EE V
_ZTSSt23_Sp_counted_ptr_inplaceIN9libcamera9LogOutputESaIvELN9__gnu_cxx12_Lock_policyE2EE V
_ZTSZN9libcamera6SignalIJEE10disconnectEvEUlRSt14_List_iteratorIPNS_15BoundMethodBaseEEE_ V
_ZTVN9libcamera10Extensible7PrivateE V
_ZTVN9libcamera10ThreadMainE V
_ZTVN9libcamera13EventNotifierE V
_ZTVN9libcamera13InvokeMessageE V
_ZTVN9libcamera15BoundMethodPackIvJbEEE V
_ZTVN9libcamera15BoundMethodPackIvJEEE V
_ZTVN9libcamera15EventDispatcherE V
_ZTVN9libcamera17BoundMethodMemberINS_13EventNotifierEvJbEEE V
_ZTVN9libcamera17BoundMethodMemberINS_5TimerEvJEEE V
_ZTVN9libcamera19EventDispatcherPollE V
_ZTVN9libcamera5TimerE V
_ZTVN9libcamera6ObjectE V
_ZTVN9libcamera6ThreadE V
_ZTVN9libcamera7MessageE V
_ZTVN9libcamera8LoggableE V
_ZTVNSt6thread11_State_implINS_8_InvokerISt5tupleIJMN9libcamera6ThreadEFvvEPS4_EEEEEE V
_ZTVSt19bad_optional_access V
_ZTVSt23_Sp_counted_ptr_inplaceIN9libcamera15BoundMethodPackIvJbEEESaIvELN9__gnu_cxx12_Lock_policyE2EE V
_ZTVSt23_Sp_counted_ptr_inplaceIN9libcamera15BoundMethodPackIvJEEESaIvELN9__gnu_cxx12_Lock_policyE2EE V
_ZTVSt23_Sp_counted_ptr_inplaceIN9libcamera8SharedFD10DescriptorESaIvELN9__gnu_cxx12_Lock_policyE2EE V
_ZTVSt23_Sp_counted_ptr_inplaceIN9libcamera9LogOutputESaIvELN9__gnu_cxx12_Lock_policyE2EE V
_ZZNSt19_Sp_make_shared_tag5_S_tiEvE5__tag u
